(lp0
S'1001004001.jpg'
p1
aS'1001004002.jpg'
p2
aS'1001004003.jpg'
p3
aS'1001005001.jpg'
p4
aS'1001005002.jpg'
p5
aS'1001005003.jpg'
p6
aS'1001007001.jpg'
p7
aS'1001007002.jpg'
p8
aS'1001007003.jpg'
p9
aS'1001007004.jpg'
p10
a.